; Function Attrs: nounwind uwtable
define noalias noundef ptr @Abc_NtkAssignIDs2(ptr noundef %0) local_unnamed_addr #0 {
  tail call void @Abc_NtkCleanCopy(ptr noundef %0) #16
  %2 = getelementptr i8, ptr %0, i64 56
  %.val3946 = load ptr, ptr %2, align 8, !tbaa !3
  %3 = getelementptr i8, ptr %.val3946, i64 4
  %.val39.val47 = load i32, ptr %3, align 4, !tbaa !24
  %4 = icmp sgt i32 %.val39.val47, 0
  br i1 %4, label %.lr.ph, label %.critedge

.lr.ph:                                           ; preds = %1, %.lr.ph
  %indvars.iv = phi i64 [ %indvars.iv.next, %.lr.ph ], [ 0, %1 ]
  %.val3949 = phi ptr [ %.val39, %.lr.ph ], [ %.val3946, %1 ]
  %5 = getelementptr i8, ptr %.val3949, i64 8
  %.val40.val = load ptr, ptr %5, align 8, !tbaa !26
  %6 = getelementptr inbounds nuw ptr, ptr %.val40.val, i64 %indvars.iv
  %7 = load ptr, ptr %6, align 8, !tbaa !27
  %8 = getelementptr inbounds nuw i8, ptr %7, i64 64
  %9 = trunc nuw nsw i64 %indvars.iv to i32
  store i32 %9, ptr %8, align 8, !tbaa !28
  %indvars.iv.next = add nuw nsw i64 %indvars.iv, 1
  %.val39 = load ptr, ptr %2, align 8, !tbaa !3
  %10 = getelementptr i8, ptr %.val39, i64 4
  %.val39.val = load i32, ptr %10, align 4, !tbaa !24
  %11 = sext i32 %.val39.val to i64
  %12 = icmp slt i64 %indvars.iv.next, %11
  br i1 %12, label %.lr.ph, label %.critedge, !llvm.loop !34

.critedge:                                        ; preds = %.lr.ph, %1
  %13 = getelementptr i8, ptr %0, i64 124
  %.val43 = load i32, ptr %13, align 4, !tbaa !35
  %14 = tail call noalias dereferenceable_or_null(16) ptr @malloc(i64 noundef 16) #17
  %15 = add i32 %.val43, -1
  %or.cond.i = icmp ult i32 %15, 7
  %spec.store.select.i = select i1 %or.cond.i, i32 8, i32 %.val43
  %16 = getelementptr inbounds nuw i8, ptr %14, i64 4
  store i32 0, ptr %16, align 4, !tbaa !24
  store i32 %spec.store.select.i, ptr %14, align 8, !tbaa !36
  %.not.i = icmp eq i32 %spec.store.select.i, 0
  br i1 %.not.i, label %Vec_PtrAlloc.exit, label %17

17:                                               ; preds = %.critedge
  %18 = sext i32 %spec.store.select.i to i64
  %19 = shl nsw i64 %18, 3
  %20 = tail call noalias ptr @malloc(i64 noundef %19) #17
  br label %Vec_PtrAlloc.exit

Vec_PtrAlloc.exit:                                ; preds = %.critedge, %17
  %21 = phi ptr [ %20, %17 ], [ null, %.critedge ]
  %22 = getelementptr inbounds nuw i8, ptr %14, i64 8
  store ptr %21, ptr %22, align 8, !tbaa !26
  %23 = getelementptr inbounds nuw i8, ptr %0, i64 32
  %24 = load ptr, ptr %23, align 8, !tbaa !37
  %25 = getelementptr i8, ptr %24, i64 4
  %.val3650 = load i32, ptr %25, align 4, !tbaa !24
  %26 = icmp sgt i32 %.val3650, 0
  br i1 %26, label %.lr.ph52, label %.critedge2.preheader

.critedge2.preheader:                             ; preds = %69, %Vec_PtrAlloc.exit
  %.val = phi i32 [ 0, %Vec_PtrAlloc.exit ], [ %.val3566, %69 ]
  %27 = getelementptr i8, ptr %0, i64 64
  %.val4153 = load ptr, ptr %27, align 8, !tbaa !31
  %28 = getelementptr i8, ptr %.val4153, i64 4
  %.val41.val54 = load i32, ptr %28, align 4, !tbaa !24
  %29 = icmp sgt i32 %.val41.val54, 0
  br i1 %29, label %.critedge2, label %.critedge4

.lr.ph52:                                         ; preds = %Vec_PtrAlloc.exit, %69
  %30 = phi ptr [ %70, %69 ], [ %24, %Vec_PtrAlloc.exit ]
  %31 = phi i32 [ %71, %69 ], [ %spec.store.select.i, %Vec_PtrAlloc.exit ]
  %.val35 = phi i32 [ %.val3566, %69 ], [ 0, %Vec_PtrAlloc.exit ]
  %indvars.iv59 = phi i64 [ %indvars.iv.next60, %69 ], [ 0, %Vec_PtrAlloc.exit ]
  %32 = getelementptr i8, ptr %30, i64 8
  %.val44.val = load ptr, ptr %32, align 8, !tbaa !26
  %33 = getelementptr inbounds nuw ptr, ptr %.val44.val, i64 %indvars.iv59
  %34 = load ptr, ptr %33, align 8, !tbaa !27
  %35 = icmp eq ptr %34, null
  br i1 %35, label %69, label %36

36:                                               ; preds = %.lr.ph52
  %37 = getelementptr i8, ptr %34, i64 20
  %.val45 = load i32, ptr %37, align 4
  %38 = and i32 %.val45, 15
  %.not = icmp eq i32 %38, 7
  br i1 %.not, label %39, label %69

39:                                               ; preds = %36
  %.val38 = load ptr, ptr %2, align 8, !tbaa !3
  %40 = getelementptr i8, ptr %.val38, i64 4
  %.val38.val = load i32, ptr %40, align 4, !tbaa !24
  %41 = add nsw i32 %.val35, %.val38.val
  %42 = getelementptr inbounds nuw i8, ptr %34, i64 64
  store i32 %41, ptr %42, align 8, !tbaa !28
  %43 = icmp eq i32 %.val35, %31
  br i1 %43, label %44, label %.Vec_PtrGrow.exit11_crit_edge.i

.Vec_PtrGrow.exit11_crit_edge.i:                  ; preds = %39
  %.pre.i = load ptr, ptr %22, align 8, !tbaa !26
  br label %Vec_PtrPush.exit

44:                                               ; preds = %39
  %45 = icmp slt i32 %31, 16
  br i1 %45, label %46, label %53

46:                                               ; preds = %44
  %47 = load ptr, ptr %22, align 8, !tbaa !26
  %.not9.i.i = icmp eq ptr %47, null
  br i1 %.not9.i.i, label %50, label %48

48:                                               ; preds = %46
  %49 = tail call dereferenceable_or_null(128) ptr @realloc(ptr noundef nonnull %47, i64 noundef 128) #18
  br label %Vec_PtrGrow.exit.i

50:                                               ; preds = %46
  %51 = tail call noalias dereferenceable_or_null(128) ptr @malloc(i64 noundef 128) #17
  br label %Vec_PtrGrow.exit.i

Vec_PtrGrow.exit.i:                               ; preds = %50, %48
  %52 = phi ptr [ %49, %48 ], [ %51, %50 ]
  store ptr %52, ptr %22, align 8, !tbaa !26
  store i32 16, ptr %14, align 8, !tbaa !36
  br label %Vec_PtrPush.exit

53:                                               ; preds = %44
  %54 = shl nuw nsw i32 %31, 1
  %55 = load ptr, ptr %22, align 8, !tbaa !26
  %.not9.i10.i = icmp eq ptr %55, null
  %56 = zext nneg i32 %54 to i64
  %57 = shl nuw nsw i64 %56, 3
  br i1 %.not9.i10.i, label %60, label %58

58:                                               ; preds = %53
  %59 = tail call ptr @realloc(ptr noundef nonnull %55, i64 noundef %57) #18
  br label %62

60:                                               ; preds = %53
  %61 = tail call noalias ptr @malloc(i64 noundef %57) #17
  br label %62

62:                                               ; preds = %60, %58
  %63 = phi ptr [ %59, %58 ], [ %61, %60 ]
  store ptr %63, ptr %22, align 8, !tbaa !26
  store i32 %54, ptr %14, align 8, !tbaa !36
  br label %Vec_PtrPush.exit

Vec_PtrPush.exit:                                 ; preds = %.Vec_PtrGrow.exit11_crit_edge.i, %Vec_PtrGrow.exit.i, %62
  %64 = phi i32 [ %31, %.Vec_PtrGrow.exit11_crit_edge.i ], [ %54, %62 ], [ 16, %Vec_PtrGrow.exit.i ]
  %65 = phi ptr [ %.pre.i, %.Vec_PtrGrow.exit11_crit_edge.i ], [ %63, %62 ], [ %52, %Vec_PtrGrow.exit.i ]
  %66 = add nsw i32 %.val35, 1
  store i32 %66, ptr %16, align 4, !tbaa !24
  %67 = sext i32 %.val35 to i64
  %68 = getelementptr inbounds ptr, ptr %65, i64 %67
  store ptr %34, ptr %68, align 8, !tbaa !27
  %.pre = load ptr, ptr %23, align 8, !tbaa !37
  br label %69

69:                                               ; preds = %Vec_PtrPush.exit, %36, %.lr.ph52
  %70 = phi ptr [ %.pre, %Vec_PtrPush.exit ], [ %30, %36 ], [ %30, %.lr.ph52 ]
  %71 = phi i32 [ %64, %Vec_PtrPush.exit ], [ %31, %36 ], [ %31, %.lr.ph52 ]
  %.val3566 = phi i32 [ %66, %Vec_PtrPush.exit ], [ %.val35, %36 ], [ %.val35, %.lr.ph52 ]
  %indvars.iv.next60 = add nuw nsw i64 %indvars.iv59, 1
  %72 = getelementptr i8, ptr %70, i64 4
  %.val36 = load i32, ptr %72, align 4, !tbaa !24
  %73 = sext i32 %.val36 to i64
  %74 = icmp slt i64 %indvars.iv.next60, %73
  br i1 %74, label %.lr.ph52, label %.critedge2.preheader, !llvm.loop !38

.critedge2:                                       ; preds = %.critedge2.preheader, %.critedge2
  %indvars.iv62 = phi i64 [ %indvars.iv.next63, %.critedge2 ], [ 0, %.critedge2.preheader ]
  %.val4156 = phi ptr [ %.val41, %.critedge2 ], [ %.val4153, %.critedge2.preheader ]
  %75 = getelementptr i8, ptr %.val4156, i64 8
  %.val42.val = load ptr, ptr %75, align 8, !tbaa !26
  %76 = getelementptr inbounds nuw ptr, ptr %.val42.val, i64 %indvars.iv62
  %77 = load ptr, ptr %76, align 8, !tbaa !27
  %.val37 = load ptr, ptr %2, align 8, !tbaa !3
  %78 = getelementptr i8, ptr %.val37, i64 4
  %.val37.val = load i32, ptr %78, align 4, !tbaa !24
  %79 = trunc nuw nsw i64 %indvars.iv62 to i32
  %80 = add i32 %.val37.val, %79
  %81 = add i32 %80, %.val
  %82 = getelementptr inbounds nuw i8, ptr %77, i64 64
  store i32 %81, ptr %82, align 8, !tbaa !28
  %indvars.iv.next63 = add nuw nsw i64 %indvars.iv62, 1
  %.val41 = load ptr, ptr %27, align 8, !tbaa !31
  %83 = getelementptr i8, ptr %.val41, i64 4
  %.val41.val = load i32, ptr %83, align 4, !tbaa !24
  %84 = sext i32 %.val41.val to i64
  %85 = icmp slt i64 %indvars.iv.next63, %84
  br i1 %85, label %.critedge2, label %.critedge4, !llvm.loop !39

.critedge4:                                       ; preds = %.critedge2, %.critedge2.preheader
  ret ptr %14
}